; Function Attrs: nounwind memory(readwrite, argmem: read) uwtable
define internal fastcc range(i32 0, 2) i32 @arkode_butcher_order4c(ptr noundef readonly captures(address_is_null) %0, ptr noundef readonly captures(address_is_null) %1, ptr noundef readonly captures(address_is_null) %2, ptr noundef readonly captures(address_is_null) %3, i32 noundef %4) unnamed_addr #10 {
  %6 = sext i32 %4 to i64
  %7 = tail call noalias ptr @calloc(i64 noundef %6, i64 noundef 8) #16
  %8 = tail call noalias ptr @calloc(i64 noundef %6, i64 noundef 8) #16
  %9 = icmp eq ptr %2, null
  %10 = icmp eq ptr %3, null
  %or.cond.i = or i1 %9, %10
  %11 = icmp eq ptr %7, null
  %or.cond3.i = or i1 %or.cond.i, %11
  %12 = icmp slt i32 %4, 1
  %or.cond5.i = or i1 %12, %or.cond3.i
  br i1 %or.cond5.i, label %arkode_butcher_vv.exit, label %.preheader.preheader.i

.preheader.preheader.i:                           ; preds = %5
  %wide.trip.count.i = zext nneg i32 %4 to i64
  br label %.preheader.i

.preheader.i:                                     ; preds = %.preheader.i, %.preheader.preheader.i
  %indvars.iv.i = phi i64 [ 0, %.preheader.preheader.i ], [ %indvars.iv.next.i, %.preheader.i ]
  %13 = getelementptr inbounds nuw double, ptr %2, i64 %indvars.iv.i
  %14 = load double, ptr %13, align 8, !tbaa !18
  %15 = getelementptr inbounds nuw double, ptr %3, i64 %indvars.iv.i
  %16 = load double, ptr %15, align 8, !tbaa !18
  %17 = fmul double %14, %16
  %18 = getelementptr inbounds nuw double, ptr %7, i64 %indvars.iv.i
  store double %17, ptr %18, align 8, !tbaa !18
  %indvars.iv.next.i = add nuw nsw i64 %indvars.iv.i, 1
  %exitcond.not.i = icmp eq i64 %indvars.iv.next.i, %wide.trip.count.i
  br i1 %exitcond.not.i, label %19, label %.preheader.i

arkode_butcher_vv.exit:                           ; preds = %5
  tail call void @free(ptr noundef %7) #17
  tail call void @free(ptr noundef %8) #17
  br label %arkode_butcher_dot.exit

19:                                               ; preds = %.preheader.i
  %20 = icmp eq ptr %1, null
  %21 = icmp eq ptr %8, null
  %or.cond3.i22 = or i1 %20, %21
  br i1 %or.cond3.i22, label %arkode_butcher_mv.exit, label %.preheader.us.i

.preheader.us.i:                                  ; preds = %19, %._crit_edge.us.i
  %indvars.iv40.i = phi i64 [ %indvars.iv.next41.i, %._crit_edge.us.i ], [ 0, %19 ]
  %22 = getelementptr inbounds nuw ptr, ptr %1, i64 %indvars.iv40.i
  %23 = load ptr, ptr %22, align 8, !tbaa !12
  %24 = getelementptr inbounds nuw double, ptr %8, i64 %indvars.iv40.i
  %.promoted.us.i = load double, ptr %24, align 8, !tbaa !18
  br label %25

25:                                               ; preds = %25, %.preheader.us.i
  %indvars.iv.i24 = phi i64 [ 0, %.preheader.us.i ], [ %indvars.iv.next.i25, %25 ]
  %26 = phi double [ %.promoted.us.i, %.preheader.us.i ], [ %31, %25 ]
  %27 = getelementptr inbounds nuw double, ptr %23, i64 %indvars.iv.i24
  %28 = load double, ptr %27, align 8, !tbaa !18
  %29 = getelementptr inbounds nuw double, ptr %7, i64 %indvars.iv.i24
  %30 = load double, ptr %29, align 8, !tbaa !18
  %31 = tail call double @llvm.fmuladd.f64(double %28, double %30, double %26)
  %indvars.iv.next.i25 = add nuw nsw i64 %indvars.iv.i24, 1
  %exitcond.not.i26 = icmp eq i64 %indvars.iv.next.i25, %wide.trip.count.i
  br i1 %exitcond.not.i26, label %._crit_edge.us.i, label %25

._crit_edge.us.i:                                 ; preds = %25
  store double %31, ptr %24, align 8, !tbaa !18
  %indvars.iv.next41.i = add nuw nsw i64 %indvars.iv40.i, 1
  %exitcond44.not.i = icmp eq i64 %indvars.iv.next41.i, %wide.trip.count.i
  br i1 %exitcond44.not.i, label %32, label %.preheader.us.i

arkode_butcher_mv.exit:                           ; preds = %19
  tail call void @free(ptr noundef nonnull %7) #17
  tail call void @free(ptr noundef %8) #17
  br label %arkode_butcher_dot.exit

32:                                               ; preds = %._crit_edge.us.i
  %33 = icmp eq ptr %0, null
  br i1 %33, label %arkode_butcher_dot.exit, label %.preheader

.preheader:                                       ; preds = %32, %.preheader
  %indvars.iv.i30 = phi i64 [ %indvars.iv.next.i31, %.preheader ], [ 0, %32 ]
  %34 = phi double [ %39, %.preheader ], [ 0.000000e+00, %32 ]
  %35 = getelementptr inbounds nuw double, ptr %0, i64 %indvars.iv.i30
  %36 = load double, ptr %35, align 8, !tbaa !18
  %37 = getelementptr inbounds nuw double, ptr %8, i64 %indvars.iv.i30
  %38 = load double, ptr %37, align 8, !tbaa !18
  %39 = tail call double @llvm.fmuladd.f64(double %36, double %38, double %34)
  %indvars.iv.next.i31 = add nuw nsw i64 %indvars.iv.i30, 1
  %exitcond.not.i32 = icmp eq i64 %indvars.iv.next.i31, %wide.trip.count.i
  br i1 %exitcond.not.i32, label %40, label %.preheader

40:                                               ; preds = %.preheader
  tail call void @free(ptr noundef %7) #17
  tail call void @free(ptr noundef nonnull %8) #17
  %41 = fadd double %39, 0xBFB5555555555555
  %42 = tail call double @llvm.fabs.f64(double %41)
  %43 = fcmp ule double %42, 0x3E50000000000000
  %44 = zext i1 %43 to i32
  br label %arkode_butcher_dot.exit

arkode_butcher_dot.exit:                          ; preds = %32, %40, %arkode_butcher_mv.exit, %arkode_butcher_vv.exit
  %.0 = phi i32 [ 0, %arkode_butcher_vv.exit ], [ 0, %arkode_butcher_mv.exit ], [ %44, %40 ], [ 0, %32 ]
  ret i32 %.0
}